target datalayout = "e-m:e-p270:32:32-p271:32:32-p272:64:64-i64:64-i128:128-f80:128-n8:16:32:64-S128"
target triple = "x86_64-pc-linux-gnu"

%struct.rb_io = type { i64, ptr, i32, i32, i32, i32, i64, ptr, %struct.rb_io_internal_buffer, %struct.rb_io_internal_buffer, i64, %struct.rb_io_encoding, ptr, %struct.rb_io_internal_buffer, ptr, i64, i32, i32, i64, i64, i64 }
%struct.rb_io_encoding = type { ptr, ptr, i32, i64 }
%struct.rb_io_internal_buffer = type <{ ptr, i32, i32, i32 }>

@.str.1 = private unnamed_addr constant [20 x i8] c"getsockopt(SO_TYPE)\00", align 1

; Function Attrs: nounwind sspstrong uwtable
define i32 @rsock_is_dgram(ptr noundef %0) #0 {
  %2 = alloca ptr, align 8
  %3 = alloca i32, align 4
  %4 = alloca i32, align 4
  %5 = alloca i32, align 4
  %6 = alloca i32, align 4
  store ptr %0, ptr %2, align 8, !tbaa !15
  call void @llvm.lifetime.start.p0(i64 4, ptr %3) #21
  call void @llvm.lifetime.start.p0(i64 4, ptr %4) #21
  store i32 4, ptr %4, align 4, !tbaa !11
  call void @llvm.lifetime.start.p0(i64 4, ptr %5) #21
  %7 = load ptr, ptr %2, align 8, !tbaa !15
  %8 = getelementptr inbounds nuw %struct.rb_io, ptr %7, i32 0, i32 2
  %9 = load i32, ptr %8, align 8, !tbaa !17
  %10 = call i32 @getsockopt(i32 noundef %9, i32 noundef 1, i32 noundef 3, ptr noundef %3, ptr noundef %4) #21
  store i32 %10, ptr %5, align 4, !tbaa !11
  %11 = load i32, ptr %5, align 4, !tbaa !11
  %12 = icmp eq i32 %11, -1
  br i1 %12, label %13, label %20

13:                                               ; preds = %1
  br label %14

14:                                               ; preds = %13
  call void @llvm.lifetime.start.p0(i64 4, ptr %6) #21
  %15 = call ptr @rb_errno_ptr()
  %16 = load i32, ptr %15, align 4, !tbaa !11
  store i32 %16, ptr %6, align 4, !tbaa !11
  %17 = load i32, ptr %6, align 4, !tbaa !11
  call void @rb_syserr_fail(i32 noundef %17, ptr noundef @.str.1) #22
  unreachable

18:                                               ; No predecessors!
  br label %19

19:                                               ; preds = %18
  br label %20

20:                                               ; preds = %19, %1
  %21 = load i32, ptr %3, align 4, !tbaa !11
  %22 = icmp eq i32 %21, 2
  %23 = zext i1 %22 to i32
  call void @llvm.lifetime.end.p0(i64 4, ptr %5) #21
  call void @llvm.lifetime.end.p0(i64 4, ptr %4) #21
  call void @llvm.lifetime.end.p0(i64 4, ptr %3) #21
  ret i32 %23
}