; Function Attrs: nounwind sspstrong uwtable
define range(i32 0, 2) i32 @rsock_is_dgram(ptr noundef readonly captures(none) %0) local_unnamed_addr #0 {
  %2 = alloca i32, align 4
  %3 = alloca i32, align 4
  call void @llvm.lifetime.start.p0(i64 4, ptr nonnull %2) #10
  call void @llvm.lifetime.start.p0(i64 4, ptr nonnull %3) #10
  store i32 4, ptr %3, align 4, !tbaa !6
  %4 = getelementptr inbounds nuw i8, ptr %0, i64 16
  %5 = load i32, ptr %4, align 8, !tbaa !12
  %6 = call i32 @getsockopt(i32 noundef %5, i32 noundef 1, i32 noundef 3, ptr noundef nonnull %2, ptr noundef nonnull %3) #10
  %7 = icmp eq i32 %6, -1
  br i1 %7, label %8, label %11

8:                                                ; preds = %1
  %9 = call ptr @rb_errno_ptr() #10
  %10 = load i32, ptr %9, align 4, !tbaa !6
  call void @rb_syserr_fail(i32 noundef %10, ptr noundef nonnull @.str.1) #11
  unreachable

11:                                               ; preds = %1
  %12 = load i32, ptr %2, align 4, !tbaa !6
  %13 = icmp eq i32 %12, 2
  %14 = zext i1 %13 to i32
  call void @llvm.lifetime.end.p0(i64 4, ptr nonnull %3) #10
  call void @llvm.lifetime.end.p0(i64 4, ptr nonnull %2) #10
  ret i32 %14
}